; Function Attrs: mustprogress uwtable
define noundef double @_ZNK8QuantLib20ProbabilityOfNEventsclESt6vectorIdSaIdEE(ptr nocapture noundef nonnull readonly align 8 dereferenceable(8) %this, ptr nocapture noundef nonnull readonly %p) local_unnamed_addr #3 align 2 personality ptr @__gxx_personality_v0 {
entry:
  %ref.tmp.i = alloca %"class.std::vector", align 8
  %0 = load i64, ptr %this, align 8, !tbaa !32
  call void @llvm.lifetime.start.p0(i64 24, ptr nonnull %ref.tmp.i) #20
  call void @_ZN8QuantLib8LossDist20probabilityOfNEventsERSt6vectorIdSaIdEE(ptr dead_on_unwind nonnull writable sret(%"class.std::vector") align 8 %ref.tmp.i, ptr noundef nonnull readonly align 8 dereferenceable(24) %p)
  %sext = shl i64 %0, 32
  %1 = load ptr, ptr %ref.tmp.i, align 8, !tbaa !3
  %2 = ashr exact i64 %sext, 29
  %add.ptr.i.i = getelementptr inbounds nuw i8, ptr %1, i64 %2
  %3 = load double, ptr %add.ptr.i.i, align 8, !tbaa !8
  %_M_end_of_storage.i.i.i = getelementptr inbounds nuw i8, ptr %ref.tmp.i, i64 16
  %4 = load ptr, ptr %_M_end_of_storage.i.i.i, align 8, !tbaa !26
  %sub.ptr.lhs.cast.i.i.i = ptrtoint ptr %4 to i64
  %sub.ptr.rhs.cast.i.i.i = ptrtoint ptr %1 to i64
  %sub.ptr.sub.i.i.i = sub i64 %sub.ptr.lhs.cast.i.i.i, %sub.ptr.rhs.cast.i.i.i
  tail call void @_ZdlPvm(ptr noundef nonnull %1, i64 noundef %sub.ptr.sub.i.i.i) #23
  call void @llvm.lifetime.end.p0(i64 24, ptr nonnull %ref.tmp.i) #20
  ret double %3
}